target datalayout = "e-m:e-p270:32:32-p271:32:32-p272:64:64-i64:64-i128:128-f80:128-n8:16:32:64-S128"
target triple = "x86_64-pc-linux-gnu"

; Function Attrs: nounwind uwtable
define dso_local i32 @memihash_cont(i32 noundef %0, ptr noundef %1, i64 noundef %2) #0 {
  %4 = alloca i32, align 4
  %5 = alloca ptr, align 8
  %6 = alloca i64, align 8
  %7 = alloca i32, align 4
  %8 = alloca ptr, align 8
  %9 = alloca i32, align 4
  store i32 %0, ptr %4, align 4, !tbaa !9
  store ptr %1, ptr %5, align 8, !tbaa !15
  store i64 %2, ptr %6, align 8, !tbaa !16
  call void @llvm.lifetime.start.p0(i64 4, ptr %7) #9
  %10 = load i32, ptr %4, align 4, !tbaa !9
  store i32 %10, ptr %7, align 4, !tbaa !9
  call void @llvm.lifetime.start.p0(i64 8, ptr %8) #9
  %11 = load ptr, ptr %5, align 8, !tbaa !15
  store ptr %11, ptr %8, align 8, !tbaa !4
  br label %12

12:                                               ; preds = %29, %3
  %13 = load i64, ptr %6, align 8, !tbaa !16
  %14 = add i64 %13, -1
  store i64 %14, ptr %6, align 8, !tbaa !16
  %15 = icmp ne i64 %13, 0
  br i1 %15, label %16, label %34

16:                                               ; preds = %12
  call void @llvm.lifetime.start.p0(i64 4, ptr %9) #9
  %17 = load ptr, ptr %8, align 8, !tbaa !4
  %18 = getelementptr inbounds nuw i8, ptr %17, i32 1
  store ptr %18, ptr %8, align 8, !tbaa !4
  %19 = load i8, ptr %17, align 1, !tbaa !11
  %20 = zext i8 %19 to i32
  store i32 %20, ptr %9, align 4, !tbaa !9
  %21 = load i32, ptr %9, align 4, !tbaa !9
  %22 = icmp uge i32 %21, 97
  br i1 %22, label %23, label %29

23:                                               ; preds = %16
  %24 = load i32, ptr %9, align 4, !tbaa !9
  %25 = icmp ule i32 %24, 122
  br i1 %25, label %26, label %29

26:                                               ; preds = %23
  %27 = load i32, ptr %9, align 4, !tbaa !9
  %28 = sub i32 %27, 32
  store i32 %28, ptr %9, align 4, !tbaa !9
  br label %29

29:                                               ; preds = %26, %23, %16
  %30 = load i32, ptr %7, align 4, !tbaa !9
  %31 = mul i32 %30, 16777619
  %32 = load i32, ptr %9, align 4, !tbaa !9
  %33 = xor i32 %31, %32
  store i32 %33, ptr %7, align 4, !tbaa !9
  call void @llvm.lifetime.end.p0(i64 4, ptr %9) #9
  br label %12, !llvm.loop !20

34:                                               ; preds = %12
  %35 = load i32, ptr %7, align 4, !tbaa !9
  call void @llvm.lifetime.end.p0(i64 8, ptr %8) #9
  call void @llvm.lifetime.end.p0(i64 4, ptr %7) #9
  ret i32 %35
}