; Function Attrs: nofree norecurse nosync nounwind memory(argmem: read) uwtable
define dso_local i32 @memihash_cont(i32 noundef %0, ptr noundef readonly captures(none) %1, i64 noundef %2) local_unnamed_addr #0 {
  %.not14 = icmp eq i64 %2, 0
  br i1 %.not14, label %._crit_edge, label %.lr.ph

.lr.ph:                                           ; preds = %3, %.lr.ph
  %.01017 = phi ptr [ %5, %.lr.ph ], [ %1, %3 ]
  %.01116 = phi i32 [ %11, %.lr.ph ], [ %0, %3 ]
  %.01215 = phi i64 [ %4, %.lr.ph ], [ %2, %3 ]
  %4 = add i64 %.01215, -1
  %5 = getelementptr inbounds nuw i8, ptr %.01017, i64 1
  %6 = load i8, ptr %.01017, align 1, !tbaa !4
  %7 = zext i8 %6 to i32
  %8 = add i8 %6, -97
  %or.cond = icmp ult i8 %8, 26
  %9 = add nsw i32 %7, -32
  %spec.select = select i1 %or.cond, i32 %9, i32 %7
  %10 = mul i32 %.01116, 16777619
  %11 = xor i32 %spec.select, %10
  %.not = icmp eq i64 %4, 0
  br i1 %.not, label %._crit_edge, label %.lr.ph, !llvm.loop !12

._crit_edge:                                      ; preds = %.lr.ph, %3
  %.011.lcssa = phi i32 [ %0, %3 ], [ %11, %.lr.ph ]
  ret i32 %.011.lcssa
}